EXPORTS
	?CheckGroupNameConflict@CGroupDb@@QAEHPADPAH@Z @ 1 NONAME ; int CGroupDb::CheckGroupNameConflict(char *, int *)
	?CheckTagNameConflict@CTagDb@@QAEHPADPAH@Z @ 2 NONAME ; int CTagDb::CheckTagNameConflict(char *, int *)
	?Current@CConfigIterator@@UAEHPAPAVCDbEntity@@@Z @ 3 NONAME ; int CConfigIterator::Current(class CDbEntity * *)
	?Current@CGroupIterator@@UAEHPAPAVCDbEntity@@@Z @ 4 NONAME ; int CGroupIterator::Current(class CDbEntity * *)
	?Current@CTagIterator@@UAEHPAPAVCDbEntity@@@Z @ 5 NONAME ; int CTagIterator::Current(class CDbEntity * *)
	?DeleteAllConfigs@CConfigDb@@QAEHXZ @ 6 NONAME ; int CConfigDb::DeleteAllConfigs(void)
	?DeleteAllGroupsByTag@CGroupDb@@QAEHI@Z @ 7 NONAME ; int CGroupDb::DeleteAllGroupsByTag(unsigned int)
	?DeleteAllTags@CTagDb@@QAEHXZ @ 8 NONAME ; int CTagDb::DeleteAllTags(void)
	?DeleteEntity@CConfigDb@@UAEHI@Z @ 9 NONAME ; int CConfigDb::DeleteEntity(unsigned int)
	?DeleteEntity@CGroupDb@@UAEHI@Z @ 10 NONAME ; int CGroupDb::DeleteEntity(unsigned int)
	?DeleteEntity@CTagDb@@UAEHI@Z @ 11 NONAME ; int CTagDb::DeleteEntity(unsigned int)
	?GetAllConfigs@CConfigDb@@QAEHPAPAVCConfigIterator@@@Z @ 12 NONAME ; int CConfigDb::GetAllConfigs(class CConfigIterator * *)
	?GetAllGroupsByTag@CGroupDb@@QAEHIPAPAVCGroupIterator@@@Z @ 13 NONAME ; int CGroupDb::GetAllGroupsByTag(unsigned int, class CGroupIterator * *)
	?GetAllTags@CTagDb@@QAEHPAPAVCTagIterator@@@Z @ 14 NONAME ; int CTagDb::GetAllTags(class CTagIterator * *)
	?GetConfigByName@CConfigDb@@QAEHPADPAVCConfig@@@Z @ 15 NONAME ; int CConfigDb::GetConfigByName(char *, class CConfig *)
	?GetConfigsTotality@CConfigDb@@QAEHPAI@Z @ 16 NONAME ; int CConfigDb::GetConfigsTotality(unsigned int *)
	?GetContactRelationGroups@CGroupDb@@QAEHIPAPAVCGroupIterator@@@Z @ 17 NONAME ; int CGroupDb::GetContactRelationGroups(unsigned int, class CGroupIterator * *)
	?GetEntityById@CConfigDb@@UAEHIPAPAVCDbEntity@@@Z @ 18 NONAME ; int CConfigDb::GetEntityById(unsigned int, class CDbEntity * *)
	?GetEntityById@CGroupDb@@UAEHIPAPAVCDbEntity@@@Z @ 19 NONAME ; int CGroupDb::GetEntityById(unsigned int, class CDbEntity * *)
	?GetEntityById@CTagDb@@UAEHIPAPAVCDbEntity@@@Z @ 20 NONAME ; int CTagDb::GetEntityById(unsigned int, class CDbEntity * *)
	?GetFieldValue@CDbEntity@@QAEHIPAPAU_GString@@@Z @ 21 NONAME ; int CDbEntity::GetFieldValue(unsigned int, struct _GString * *)
	?GetFieldsName@CDbEntity@@QAEHPAPAU_GPtrArray@@@Z @ 22 NONAME ; int CDbEntity::GetFieldsName(struct _GPtrArray * *)
	?GetFieldsValue@CDbEntity@@QAEHPAU_GArray@@PAPAU_GPtrArray@@@Z @ 23 NONAME ; int CDbEntity::GetFieldsValue(struct _GArray *, struct _GPtrArray * *)
	?GetGroupsTotalityByTag@CGroupDb@@QAEHIPAI@Z @ 24 NONAME ; int CGroupDb::GetGroupsTotalityByTag(unsigned int, unsigned int *)
	?GetMaxId@CConfigDb@@UAEHPAI@Z @ 25 NONAME ; int CConfigDb::GetMaxId(unsigned int *)
	?GetMaxId@CGroupDb@@UAEHPAI@Z @ 26 NONAME ; int CGroupDb::GetMaxId(unsigned int *)
	?GetMaxId@CTagDb@@UAEHPAI@Z @ 27 NONAME ; int CTagDb::GetMaxId(unsigned int *)
	?GetTagsTotality@CTagDb@@QAEHPAI@Z @ 28 NONAME ; int CTagDb::GetTagsTotality(unsigned int *)
	?InitEntityDb@CConfigDb@@UAEHXZ @ 29 NONAME ; int CConfigDb::InitEntityDb(void)
	?InitEntityDb@CGroupDb@@UAEHXZ @ 30 NONAME ; int CGroupDb::InitEntityDb(void)
	?InitEntityDb@CTagDb@@UAEHXZ @ 31 NONAME ; int CTagDb::InitEntityDb(void)
	?Next@CConfigIterator@@UAEHPAH@Z @ 32 NONAME ; int CConfigIterator::Next(int *)
	?Next@CGroupIterator@@UAEHPAH@Z @ 33 NONAME ; int CGroupIterator::Next(int *)
	?Next@CTagIterator@@UAEHPAH@Z @ 34 NONAME ; int CTagIterator::Next(int *)
	?Prev@CConfigIterator@@UAEHPAH@Z @ 35 NONAME ; int CConfigIterator::Prev(int *)
	?Prev@CGroupIterator@@UAEHPAH@Z @ 36 NONAME ; int CGroupIterator::Prev(int *)
	?Prev@CTagIterator@@UAEHPAH@Z @ 37 NONAME ; int CTagIterator::Prev(int *)
	?ReleaseGroupAllRelations@CGroupDb@@QAEHI@Z @ 38 NONAME ; int CGroupDb::ReleaseGroupAllRelations(unsigned int)
	?ReleaseGroupAllRelations@CGroupDb@@QAEHPAVCGroup@@@Z @ 39 NONAME ; int CGroupDb::ReleaseGroupAllRelations(class CGroup *)
	?SaveEntity@CConfigDb@@UAEHPAVCDbEntity@@@Z @ 40 NONAME ; int CConfigDb::SaveEntity(class CDbEntity *)
	?SaveEntity@CGroupDb@@UAEHPAVCDbEntity@@@Z @ 41 NONAME ; int CGroupDb::SaveEntity(class CDbEntity *)
	?SaveEntity@CTagDb@@UAEHPAVCDbEntity@@@Z @ 42 NONAME ; int CTagDb::SaveEntity(class CDbEntity *)
	?SetFieldValue@CDbEntity@@QAEHIPBU_GString@@@Z @ 43 NONAME ; int CDbEntity::SetFieldValue(unsigned int, struct _GString const *)
	?SetFieldsValue@CDbEntity@@QAEHPAU_GArray@@PBU_GPtrArray@@@Z @ 44 NONAME ; int CDbEntity::SetFieldsValue(struct _GArray *, struct _GPtrArray const *)
	?SetSortKey@CEntityDb@@QAEHIH@Z @ 45 NONAME ; int CEntityDb::SetSortKey(unsigned int, int)
	?UpdateEntity@CConfigDb@@UAEHPAVCDbEntity@@@Z @ 46 NONAME ; int CConfigDb::UpdateEntity(class CDbEntity *)
	?UpdateEntity@CGroupDb@@UAEHPAVCDbEntity@@@Z @ 47 NONAME ; int CGroupDb::UpdateEntity(class CDbEntity *)
	?UpdateEntity@CTagDb@@UAEHPAVCDbEntity@@@Z @ 48 NONAME ; int CTagDb::UpdateEntity(class CDbEntity *)
	?chartohbufc16@@YAHPBDAAVHBufC16@@@Z @ 49 NONAME ; int chartohbufc16(char const *, class HBufC16 &)
	?chartohbufc8@@YAXPBDAAVHBufC8@@@Z @ 50 NONAME ; void chartohbufc8(char const *, class HBufC8 &)
	?chartotbuf16@@YAHPBDAAVTDes16@@@Z @ 51 NONAME ; int chartotbuf16(char const *, class TDes16 &)
	?chartotbuf8@@YAXPBDAAVTDes8@@@Z @ 52 NONAME ; void chartotbuf8(char const *, class TDes8 &)
	?tbuf16tochar@@YAHAAVTDes16@@PAD@Z @ 53 NONAME ; int tbuf16tochar(class TDes16 &, char *)
	?tbuf16towchar@@YAPAGAAVTDes16@@@Z @ 54 NONAME ; unsigned short * tbuf16towchar(class TDes16 &)
	?tbuf8tochar@@YAPADAAVTDes8@@@Z @ 55 NONAME ; char * tbuf8tochar(class TDes8 &)
	?tbuf8towchar@@YAHAAVTDes8@@PAG@Z @ 56 NONAME ; int tbuf8towchar(class TDes8 &, unsigned short *)
	?tbufC16tochar@@YAHAAVTDesC16@@PAD@Z @ 57 NONAME ; int tbufC16tochar(class TDesC16 &, char *)
	?tbufC16towchar@@YAXAAVTDesC16@@PAG@Z @ 58 NONAME ; void tbufC16towchar(class TDesC16 &, unsigned short *)
	?tbufC8tochar@@YAXAAVTDesC8@@PAD@Z @ 59 NONAME ; void tbufC8tochar(class TDesC8 &, char *)
	?tbufC8towchar@@YAHAAVTDesC8@@PAG@Z @ 60 NONAME ; int tbufC8towchar(class TDesC8 &, unsigned short *)
	?wchartohbufc16@@YAXPBGAAVHBufC16@@@Z @ 61 NONAME ; void wchartohbufc16(unsigned short const *, class HBufC16 &)
	?wchartohbufc8@@YAHPBGAAVHBufC8@@@Z @ 62 NONAME ; int wchartohbufc8(unsigned short const *, class HBufC8 &)
	?wchartotbuf16@@YAXPBGAAVTDes16@@@Z @ 63 NONAME ; void wchartotbuf16(unsigned short const *, class TDes16 &)
	?wchartotbuf8@@YAHPBGAAVTDes8@@@Z @ 64 NONAME ; int wchartotbuf8(unsigned short const *, class TDes8 &)

